target datalayout = "e-m:e-p270:32:32-p271:32:32-p272:64:64-i64:64-i128:128-f80:128-n8:16:32:64-S128"
target triple = "x86_64-pc-linux-gnu"

%struct._packet_info = type { ptr, ptr, i32, i32, %struct.nstime_t, %struct.nstime_t, %struct.nstime_t, i8, ptr, ptr, ptr, ptr, %struct._address, %struct._address, %struct._address, %struct._address, %struct._address, %struct._address, i32, ptr, i8, [3 x i8], %struct.anon, i32, i32, i32, i32, ptr, i8, ptr, ptr, i16, i16, i32, i32, i16, i32, i32, ptr, ptr, ptr, i8, i8, i16, i16, i16, i32, i16, i16, ptr, ptr, ptr, ptr, ptr, i32, i32 }
%struct.nstime_t = type { i64, i32 }
%struct._address = type { i32, i32, ptr, ptr }
%struct.anon = type { i8, [3 x i8] }

@hf_docsis_bintrngreq_capflags = internal global i32 0, align 4
@hf_docsis_bintrngreq_capflags_frag = internal global i32 0, align 4
@hf_docsis_bintrngreq_capflags_encrypt = internal global i32 0, align 4
@hf_docsis_bintrngreq_mddsgid = internal global i32 0, align 4
@hf_docsis_mgt_upstream_chid = internal global i32 0, align 4
@hf_docsis_mgt_down_chid = internal global i32 0, align 4
@ett_docsis_bintrngreq = internal global i32 0, align 4
@proto_docsis_bintrngreq = internal global i32 0, align 4
@.str.2203 = private unnamed_addr constant [56 x i8] c"Bonded Initial Ranging Request: MD-DS-SG-ID = %u (0x%X)\00", align 1

; Function Attrs: null_pointer_is_valid sspstrong uwtable
define internal i32 @dissect_bintrngreq(ptr noundef %0, ptr noundef %1, ptr noundef %2, ptr noundef %3) #0 {
  %5 = alloca ptr, align 8
  %6 = alloca ptr, align 8
  %7 = alloca ptr, align 8
  %8 = alloca ptr, align 8
  %9 = alloca ptr, align 8
  %10 = alloca ptr, align 8
  %11 = alloca i8, align 1
  %12 = alloca i16, align 2
  store ptr %0, ptr %5, align 8
  store ptr %1, ptr %6, align 8
  store ptr %2, ptr %7, align 8
  store ptr %3, ptr %8, align 8
  call void @llvm.lifetime.start.p0(i64 8, ptr %9) #6
  call void @llvm.lifetime.start.p0(i64 8, ptr %10) #6
  call void @llvm.lifetime.start.p0(i64 1, ptr %11) #6
  call void @llvm.lifetime.start.p0(i64 2, ptr %12) #6
  store i16 0, ptr %12, align 2
  %13 = load ptr, ptr %5, align 8
  %14 = call zeroext i8 @tvb_get_uint8(ptr noundef %13, i32 noundef 1)
  store i8 %14, ptr %11, align 1
  %15 = load ptr, ptr %6, align 8
  %16 = getelementptr inbounds nuw %struct._packet_info, ptr %15, i32 0, i32 1
  %17 = load ptr, ptr %16, align 8
  %18 = load i8, ptr %11, align 1
  %19 = zext i8 %18 to i32
  %20 = load i8, ptr %11, align 1
  %21 = zext i8 %20 to i32
  call void (ptr, i32, ptr, ...) @col_add_fstr(ptr noundef %17, i32 noundef 25, ptr noundef @.str.2203, i32 noundef %19, i32 noundef %21)
  %22 = load ptr, ptr %7, align 8
  %23 = load i32, ptr @proto_docsis_bintrngreq, align 4
  %24 = load ptr, ptr %5, align 8
  %25 = load i16, ptr %12, align 2
  %26 = zext i16 %25 to i32
  %27 = call ptr @proto_tree_add_item(ptr noundef %22, i32 noundef %23, ptr noundef %24, i32 noundef %26, i32 noundef -1, i32 noundef 0)
  store ptr %27, ptr %9, align 8
  %28 = load ptr, ptr %9, align 8
  %29 = load i32, ptr @ett_docsis_bintrngreq, align 4
  %30 = call ptr @proto_item_add_subtree(ptr noundef %28, i32 noundef %29)
  store ptr %30, ptr %10, align 8
  %31 = load ptr, ptr %10, align 8
  %32 = load i32, ptr @hf_docsis_bintrngreq_capflags, align 4
  %33 = load ptr, ptr %5, align 8
  %34 = load i16, ptr %12, align 2
  %35 = zext i16 %34 to i32
  %36 = call ptr @proto_tree_add_item(ptr noundef %31, i32 noundef %32, ptr noundef %33, i32 noundef %35, i32 noundef 1, i32 noundef 0)
  %37 = load ptr, ptr %10, align 8
  %38 = load i32, ptr @hf_docsis_bintrngreq_capflags_frag, align 4
  %39 = load ptr, ptr %5, align 8
  %40 = load i16, ptr %12, align 2
  %41 = zext i16 %40 to i32
  %42 = call ptr @proto_tree_add_item(ptr noundef %37, i32 noundef %38, ptr noundef %39, i32 noundef %41, i32 noundef 1, i32 noundef 0)
  %43 = load ptr, ptr %10, align 8
  %44 = load i32, ptr @hf_docsis_bintrngreq_capflags_encrypt, align 4
  %45 = load ptr, ptr %5, align 8
  %46 = load i16, ptr %12, align 2
  %47 = zext i16 %46 to i32
  %48 = call ptr @proto_tree_add_item(ptr noundef %43, i32 noundef %44, ptr noundef %45, i32 noundef %47, i32 noundef 1, i32 noundef 0)
  %49 = load i16, ptr %12, align 2
  %50 = add i16 %49, 1
  store i16 %50, ptr %12, align 2
  %51 = load ptr, ptr %10, align 8
  %52 = load i32, ptr @hf_docsis_bintrngreq_mddsgid, align 4
  %53 = load ptr, ptr %5, align 8
  %54 = load i16, ptr %12, align 2
  %55 = zext i16 %54 to i32
  %56 = call ptr @proto_tree_add_item(ptr noundef %51, i32 noundef %52, ptr noundef %53, i32 noundef %55, i32 noundef 1, i32 noundef 0)
  %57 = load i16, ptr %12, align 2
  %58 = add i16 %57, 1
  store i16 %58, ptr %12, align 2
  %59 = load ptr, ptr %10, align 8
  %60 = load i32, ptr @hf_docsis_mgt_down_chid, align 4
  %61 = load ptr, ptr %5, align 8
  %62 = load i16, ptr %12, align 2
  %63 = zext i16 %62 to i32
  %64 = call ptr @proto_tree_add_item(ptr noundef %59, i32 noundef %60, ptr noundef %61, i32 noundef %63, i32 noundef 1, i32 noundef 0)
  %65 = load i16, ptr %12, align 2
  %66 = add i16 %65, 1
  store i16 %66, ptr %12, align 2
  %67 = load ptr, ptr %10, align 8
  %68 = load i32, ptr @hf_docsis_mgt_upstream_chid, align 4
  %69 = load ptr, ptr %5, align 8
  %70 = load i16, ptr %12, align 2
  %71 = zext i16 %70 to i32
  %72 = call ptr @proto_tree_add_item(ptr noundef %67, i32 noundef %68, ptr noundef %69, i32 noundef %71, i32 noundef 1, i32 noundef 0)
  %73 = load ptr, ptr %5, align 8
  %74 = call i32 @tvb_captured_length(ptr noundef %73)
  call void @llvm.lifetime.end.p0(i64 2, ptr %12) #6
  call void @llvm.lifetime.end.p0(i64 1, ptr %11) #6
  call void @llvm.lifetime.end.p0(i64 8, ptr %10) #6
  call void @llvm.lifetime.end.p0(i64 8, ptr %9) #6
  ret i32 %74
}