; Function Attrs: null_pointer_is_valid sspstrong uwtable
define internal i32 @dissect_bintrngreq(ptr noundef %0, ptr noundef readonly captures(none) %1, ptr noundef %2, ptr readnone captures(none) %3) #0 {
  %5 = tail call zeroext i8 @tvb_get_uint8(ptr noundef %0, i32 noundef 1)
  %6 = getelementptr inbounds nuw i8, ptr %1, i64 8
  %7 = load ptr, ptr %6, align 8
  %8 = zext i8 %5 to i32
  tail call void (ptr, i32, ptr, ...) @col_add_fstr(ptr noundef %7, i32 noundef 25, ptr noundef nonnull @.str.2203, i32 noundef %8, i32 noundef %8)
  %9 = load i32, ptr @proto_docsis_bintrngreq, align 4
  %10 = tail call ptr @proto_tree_add_item(ptr noundef %2, i32 noundef %9, ptr noundef %0, i32 noundef 0, i32 noundef -1, i32 noundef 0)
  %11 = load i32, ptr @ett_docsis_bintrngreq, align 4
  %12 = tail call ptr @proto_item_add_subtree(ptr noundef %10, i32 noundef %11)
  %13 = load i32, ptr @hf_docsis_bintrngreq_capflags, align 4
  %14 = tail call ptr @proto_tree_add_item(ptr noundef %12, i32 noundef %13, ptr noundef %0, i32 noundef 0, i32 noundef 1, i32 noundef 0)
  %15 = load i32, ptr @hf_docsis_bintrngreq_capflags_frag, align 4
  %16 = tail call ptr @proto_tree_add_item(ptr noundef %12, i32 noundef %15, ptr noundef %0, i32 noundef 0, i32 noundef 1, i32 noundef 0)
  %17 = load i32, ptr @hf_docsis_bintrngreq_capflags_encrypt, align 4
  %18 = tail call ptr @proto_tree_add_item(ptr noundef %12, i32 noundef %17, ptr noundef %0, i32 noundef 0, i32 noundef 1, i32 noundef 0)
  %19 = load i32, ptr @hf_docsis_bintrngreq_mddsgid, align 4
  %20 = tail call ptr @proto_tree_add_item(ptr noundef %12, i32 noundef %19, ptr noundef %0, i32 noundef 1, i32 noundef 1, i32 noundef 0)
  %21 = load i32, ptr @hf_docsis_mgt_down_chid, align 4
  %22 = tail call ptr @proto_tree_add_item(ptr noundef %12, i32 noundef %21, ptr noundef %0, i32 noundef 2, i32 noundef 1, i32 noundef 0)
  %23 = load i32, ptr @hf_docsis_mgt_upstream_chid, align 4
  %24 = tail call ptr @proto_tree_add_item(ptr noundef %12, i32 noundef %23, ptr noundef %0, i32 noundef 3, i32 noundef 1, i32 noundef 0)
  %25 = tail call i32 @tvb_captured_length(ptr noundef %0)
  ret i32 %25
}